target datalayout = "e-m:e-p270:32:32-p271:32:32-p272:64:64-i64:64-i128:128-f80:128-n8:16:32:64-S128"
target triple = "x86_64-pc-linux-gnu"

%struct.Vmem = type { ptr, i64, i64 }
%struct.ParseContext_ = type { %struct.TokenData, i32, %union.SourceSpan, %union.SourceSpan, ptr, %struct.Lexer }
%struct.TokenData = type { ptr, i64, %union.anon.86 }
%union.anon.86 = type { %struct.anon.89 }
%struct.anon.89 = type { %struct.Int128_, i8 }
%struct.Int128_ = type { i64, i64 }
%union.SourceSpan = type { i64 }
%struct.Lexer = type { ptr, ptr, ptr, ptr, i32, i32, ptr, ptr, ptr, %struct.TokenData, %union.SourceSpan, i32, i32 }
%struct.Expr_ = type { ptr, %union.SourceSpan, i16, %union.anon.30 }
%union.anon.30 = type { %struct.ExprAnySwitch }
%struct.ExprAnySwitch = type { i8, %union.anon.32 }
%union.anon.32 = type { %struct.anon.33 }
%struct.anon.33 = type { ptr, %union.SourceSpan, ptr }
%struct.VHeader_ = type { i32, i32, [0 x i8] }
%struct.Decl_ = type { ptr, ptr, %union.SourceSpan, i64, %union.anon, i32, %union.anon.1, i64, ptr, ptr, ptr, %union.anon.2 }
%union.anon = type { ptr }
%union.anon.1 = type { i16 }
%union.anon.2 = type { %struct.FuncDecl }
%struct.FuncDecl = type { i32, [4 x i8], %struct.Signature_, i32, i32, %union.anon.9 }
%struct.Signature_ = type <{ %struct.CalleeAttributes, i16, i8, i32, i32, [4 x i8], ptr }>
%struct.CalleeAttributes = type { i8 }
%union.anon.9 = type { %struct.anon.10 }
%struct.anon.10 = type { i16, %union.anon.11 }
%union.anon.11 = type { ptr }
%struct.Ast_ = type { %union.SourceSpan, i32, i8, %union.anon.62 }
%union.anon.62 = type { %struct.AstDocDirective_ }
%struct.AstDocDirective_ = type { i8, %union.anon.65 }
%union.anon.65 = type { %struct.anon.66 }
%struct.anon.66 = type { ptr, %union.SourceSpan, i8 }

@poisoned_expr = external global ptr, align 8
@.str.22 = private unnamed_addr constant [15 x i8] c"Expected '%s'.\00", align 1
@type_info_arena = external global %struct.Vmem, align 8
@ast_arena = external global %struct.Vmem, align 8
@.str.39 = private unnamed_addr constant [56 x i8] c"Expected the beginning of a block or a short statement.\00", align 1
@decl_arena = external global %struct.Vmem, align 8

; Function Attrs: nounwind uwtable
define internal i32 @astid(ptr noundef %0) #0 {
  %2 = alloca ptr, align 8
  store ptr %0, ptr %2, align 8
  %3 = load ptr, ptr %2, align 8
  %4 = load ptr, ptr @ast_arena, align 8
  %5 = ptrtoint ptr %3 to i64
  %6 = ptrtoint ptr %4 to i64
  %7 = sub i64 %5, %6
  %8 = sdiv exact i64 %7, 48
  %9 = trunc i64 %8 to i32
  ret i32 %9
}

; Function Attrs: nounwind uwtable
define internal i32 @type_infoid(ptr noundef %0) #0 {
  %2 = alloca ptr, align 8
  store ptr %0, ptr %2, align 8
  %3 = load ptr, ptr %2, align 8
  %4 = load ptr, ptr @type_info_arena, align 8
  %5 = ptrtoint ptr %3 to i64
  %6 = ptrtoint ptr %4 to i64
  %7 = sub i64 %5, %6
  %8 = sdiv exact i64 %7, 40
  %9 = trunc i64 %8 to i32
  ret i32 %9
}

; Function Attrs: nounwind uwtable
define internal ptr @decl_calloc() #0 {
  %1 = call ptr @vmem_alloc(ptr noundef @decl_arena, i64 noundef 136)
  ret ptr %1
}

; Function Attrs: nounwind uwtable
define internal ptr @parse_lambda(ptr noundef %0, ptr noundef %1) #0 {
  %3 = alloca ptr, align 8
  %4 = alloca ptr, align 8
  %5 = alloca ptr, align 8
  %6 = alloca ptr, align 8
  %7 = alloca i32, align 4
  %8 = alloca i1, align 1
  %9 = alloca ptr, align 8
  %10 = alloca i32, align 4
  %11 = alloca ptr, align 8
  %12 = alloca i32, align 4
  %13 = alloca i1, align 1
  %14 = alloca ptr, align 8
  %15 = alloca i32, align 4
  %16 = alloca ptr, align 8
  %17 = alloca i32, align 4
  %18 = alloca i32, align 4
  %19 = alloca ptr, align 8
  %20 = alloca ptr, align 8
  %21 = alloca ptr, align 8
  %22 = alloca i32, align 4
  %23 = alloca ptr, align 8
  %24 = alloca i32, align 4
  %25 = alloca ptr, align 8
  %26 = alloca i32, align 4
  %27 = alloca ptr, align 8
  %28 = alloca ptr, align 8
  %29 = alloca ptr, align 8
  %30 = alloca ptr, align 8
  %31 = alloca ptr, align 8
  %32 = alloca ptr, align 8
  %33 = alloca ptr, align 8
  %34 = alloca ptr, align 8
  %35 = alloca ptr, align 8
  %36 = alloca i32, align 4
  %37 = alloca i32, align 4
  %38 = alloca ptr, align 8
  %39 = alloca ptr, align 8
  %40 = alloca ptr, align 8
  store ptr %0, ptr %28, align 8
  store ptr %1, ptr %29, align 8
  %41 = load ptr, ptr %28, align 8
  %42 = getelementptr inbounds %struct.ParseContext_, ptr %41, i32 0, i32 2
  %43 = getelementptr inbounds %union.SourceSpan, ptr %42, i32 0, i32 0
  %44 = load i64, ptr %43, align 8
  %45 = call ptr @expr_new(i32 noundef 36, i64 %44)
  store ptr %45, ptr %30, align 8
  %46 = load ptr, ptr %28, align 8
  store ptr %46, ptr %16, align 8
  store i32 126, ptr %17, align 4
  %47 = load ptr, ptr %16, align 8
  call void @advance(ptr noundef %47) #5
  %48 = call ptr @decl_calloc()
  store ptr %48, ptr %31, align 8
  %49 = load ptr, ptr %31, align 8
  %50 = getelementptr inbounds %struct.Decl_, ptr %49, i32 0, i32 3
  %51 = load i64, ptr %50, align 8
  %52 = and i64 %51, -128
  %53 = or i64 %52, 17
  store i64 %53, ptr %50, align 8
  %54 = load ptr, ptr %31, align 8
  %55 = getelementptr inbounds %struct.Decl_, ptr %54, i32 0, i32 3
  %56 = load i64, ptr %55, align 8
  %57 = and i64 %56, -7169
  %58 = or i64 %57, 2048
  store i64 %58, ptr %55, align 8
  %59 = load ptr, ptr %31, align 8
  %60 = getelementptr inbounds %struct.Decl_, ptr %59, i32 0, i32 11
  %61 = getelementptr inbounds %struct.FuncDecl, ptr %60, i32 0, i32 5
  %62 = getelementptr inbounds %struct.anon.10, ptr %61, i32 0, i32 1
  store ptr null, ptr %62, align 8
  store ptr null, ptr %32, align 8
  %63 = load ptr, ptr %28, align 8
  store ptr %63, ptr %21, align 8
  store i32 19, ptr %22, align 4
  %64 = load ptr, ptr %21, align 8
  %65 = getelementptr inbounds %struct.ParseContext_, ptr %64, i32 0, i32 1
  %66 = load i32, ptr %65, align 8
  %67 = load i32, ptr %22, align 4
  %68 = icmp eq i32 %66, %67
  br i1 %68, label %88, label %69

69:                                               ; preds = %2
  %70 = load ptr, ptr %28, align 8
  %71 = call ptr @parse_optional_type(ptr noundef %70)
  store ptr %71, ptr %33, align 8
  %72 = load ptr, ptr %33, align 8
  store ptr %72, ptr %5, align 8
  %73 = load ptr, ptr %5, align 8
  %74 = icmp ne ptr %73, null
  br i1 %74, label %75, label %82

75:                                               ; preds = %69
  %76 = load ptr, ptr %5, align 8
  %77 = load i16, ptr %76, align 8
  %78 = lshr i16 %77, 3
  %79 = and i16 %78, 63
  %80 = zext i16 %79 to i32
  %81 = icmp ne i32 %80, 0
  br label %82

82:                                               ; preds = %75, %69
  %83 = phi i1 [ true, %69 ], [ %81, %75 ]
  br i1 %83, label %86, label %84

84:                                               ; preds = %82
  %85 = load ptr, ptr @poisoned_expr, align 8
  store ptr %85, ptr %27, align 8
  br label %264

86:                                               ; preds = %82
  %87 = load ptr, ptr %33, align 8
  store ptr %87, ptr %32, align 8
  br label %88

88:                                               ; preds = %86, %2
  br label %89

89:                                               ; preds = %88
  %90 = load ptr, ptr %28, align 8
  store ptr %90, ptr %9, align 8
  store i32 19, ptr %10, align 4
  %91 = load ptr, ptr %9, align 8
  %92 = load i32, ptr %10, align 4
  store ptr %91, ptr %6, align 8
  store i32 %92, ptr %7, align 4
  %93 = load ptr, ptr %6, align 8
  %94 = getelementptr inbounds %struct.ParseContext_, ptr %93, i32 0, i32 1
  %95 = load i32, ptr %94, align 8
  %96 = load i32, ptr %7, align 4
  %97 = icmp eq i32 %95, %96
  br i1 %97, label %98, label %99

98:                                               ; preds = %89
  store i1 true, ptr %8, align 1
  br label %105

99:                                               ; preds = %89
  %100 = load ptr, ptr %9, align 8
  %101 = getelementptr inbounds %struct.ParseContext_, ptr %100, i32 0, i32 2
  %102 = load i32, ptr %10, align 4
  %103 = call ptr @token_type_to_string(i32 noundef %102) #5
  %104 = load i64, ptr %101, align 8
  call void (i64, ptr, ...) @sema_error_at(i64 %104, ptr noundef @.str.22, ptr noundef %103) #5
  store i1 false, ptr %8, align 1
  br label %105

105:                                              ; preds = %99, %98
  %106 = load i1, ptr %8, align 1
  br i1 %106, label %109, label %107

107:                                              ; preds = %105
  %108 = load ptr, ptr @poisoned_expr, align 8
  store ptr %108, ptr %27, align 8
  br label %264

109:                                              ; preds = %105
  %110 = load ptr, ptr %28, align 8
  call void @advance(ptr noundef %110)
  br label %111

111:                                              ; preds = %109
  store ptr null, ptr %34, align 8
  store ptr null, ptr %35, align 8
  store i32 0, ptr %36, align 4
  store i32 -1, ptr %37, align 4
  %112 = load ptr, ptr %28, align 8
  %113 = call zeroext i1 @parse_parameters(ptr noundef %112, ptr noundef %35, ptr noundef null, ptr noundef %36, ptr noundef %37, i32 noundef 4)
  br i1 %113, label %115, label %114

114:                                              ; preds = %111
  store ptr null, ptr %27, align 8
  br label %264

115:                                              ; preds = %111
  br label %116

116:                                              ; preds = %115
  %117 = load ptr, ptr %28, align 8
  store ptr %117, ptr %14, align 8
  store i32 26, ptr %15, align 4
  %118 = load ptr, ptr %14, align 8
  %119 = load i32, ptr %15, align 4
  store ptr %118, ptr %11, align 8
  store i32 %119, ptr %12, align 4
  %120 = load ptr, ptr %11, align 8
  %121 = getelementptr inbounds %struct.ParseContext_, ptr %120, i32 0, i32 1
  %122 = load i32, ptr %121, align 8
  %123 = load i32, ptr %12, align 4
  %124 = icmp eq i32 %122, %123
  br i1 %124, label %125, label %126

125:                                              ; preds = %116
  store i1 true, ptr %13, align 1
  br label %132

126:                                              ; preds = %116
  %127 = load ptr, ptr %14, align 8
  %128 = getelementptr inbounds %struct.ParseContext_, ptr %127, i32 0, i32 2
  %129 = load i32, ptr %15, align 4
  %130 = call ptr @token_type_to_string(i32 noundef %129) #5
  %131 = load i64, ptr %128, align 8
  call void (i64, ptr, ...) @sema_error_at(i64 %131, ptr noundef @.str.22, ptr noundef %130) #5
  store i1 false, ptr %13, align 1
  br label %132

132:                                              ; preds = %126, %125
  %133 = load i1, ptr %13, align 1
  br i1 %133, label %136, label %134

134:                                              ; preds = %132
  %135 = load ptr, ptr @poisoned_expr, align 8
  store ptr %135, ptr %27, align 8
  br label %264

136:                                              ; preds = %132
  %137 = load ptr, ptr %28, align 8
  call void @advance(ptr noundef %137)
  br label %138

138:                                              ; preds = %136
  %139 = load ptr, ptr %31, align 8
  %140 = getelementptr inbounds %struct.Decl_, ptr %139, i32 0, i32 11
  %141 = getelementptr inbounds %struct.FuncDecl, ptr %140, i32 0, i32 2
  store ptr %141, ptr %38, align 8
  %142 = load i32, ptr %37, align 4
  %143 = icmp slt i32 %142, 0
  br i1 %143, label %144, label %156

144:                                              ; preds = %138
  %145 = load ptr, ptr %35, align 8
  store ptr %145, ptr %19, align 8
  %146 = load ptr, ptr %19, align 8
  %147 = icmp ne ptr %146, null
  br i1 %147, label %149, label %148

148:                                              ; preds = %144
  store i32 0, ptr %18, align 4
  br label %154

149:                                              ; preds = %144
  %150 = load ptr, ptr %19, align 8
  store ptr %150, ptr %20, align 8
  %151 = load ptr, ptr %20, align 8
  %152 = getelementptr inbounds %struct.VHeader_, ptr %151, i64 -1
  %153 = load i32, ptr %152, align 4
  store i32 %153, ptr %18, align 4
  br label %154

154:                                              ; preds = %149, %148
  %155 = load i32, ptr %18, align 4
  br label %158

156:                                              ; preds = %138
  %157 = load i32, ptr %37, align 4
  br label %158

158:                                              ; preds = %156, %154
  %159 = phi i32 [ %155, %154 ], [ %157, %156 ]
  %160 = load ptr, ptr %38, align 8
  %161 = getelementptr inbounds %struct.Signature_, ptr %160, i32 0, i32 3
  store i32 %159, ptr %161, align 4
  %162 = load ptr, ptr %35, align 8
  %163 = load ptr, ptr %38, align 8
  %164 = getelementptr inbounds %struct.Signature_, ptr %163, i32 0, i32 6
  store ptr %162, ptr %164, align 8
  %165 = load ptr, ptr %32, align 8
  %166 = icmp ne ptr %165, null
  br i1 %166, label %167, label %170

167:                                              ; preds = %158
  %168 = load ptr, ptr %32, align 8
  %169 = call i32 @type_infoid(ptr noundef %168)
  br label %171

170:                                              ; preds = %158
  br label %171

171:                                              ; preds = %170, %167
  %172 = phi i32 [ %169, %167 ], [ 0, %170 ]
  %173 = load ptr, ptr %38, align 8
  %174 = getelementptr inbounds %struct.Signature_, ptr %173, i32 0, i32 4
  store i32 %172, ptr %174, align 8
  %175 = load i32, ptr %36, align 4
  %176 = load ptr, ptr %38, align 8
  %177 = getelementptr inbounds %struct.Signature_, ptr %176, i32 0, i32 1
  %178 = trunc i32 %175 to i16
  %179 = load i16, ptr %177, align 1
  %180 = and i16 %178, 7
  %181 = shl i16 %180, 3
  %182 = and i16 %179, -57
  %183 = or i16 %182, %181
  store i16 %183, ptr %177, align 1
  %184 = load ptr, ptr %28, align 8
  %185 = load ptr, ptr %31, align 8
  %186 = getelementptr inbounds %struct.Decl_, ptr %185, i32 0, i32 9
  %187 = call zeroext i1 @parse_attributes(ptr noundef %184, ptr noundef %186, ptr noundef null, ptr noundef null, ptr noundef null)
  br i1 %187, label %190, label %188

188:                                              ; preds = %171
  %189 = load ptr, ptr @poisoned_expr, align 8
  store ptr %189, ptr %27, align 8
  br label %264

190:                                              ; preds = %171
  %191 = load ptr, ptr %28, align 8
  store ptr %191, ptr %23, align 8
  store i32 41, ptr %24, align 4
  %192 = load ptr, ptr %23, align 8
  %193 = getelementptr inbounds %struct.ParseContext_, ptr %192, i32 0, i32 1
  %194 = load i32, ptr %193, align 8
  %195 = load i32, ptr %24, align 4
  %196 = icmp eq i32 %194, %195
  br i1 %196, label %197, label %224

197:                                              ; preds = %190
  %198 = load ptr, ptr %28, align 8
  %199 = load ptr, ptr %31, align 8
  %200 = getelementptr inbounds %struct.Decl_, ptr %199, i32 0, i32 11
  %201 = getelementptr inbounds %struct.FuncDecl, ptr %200, i32 0, i32 2
  %202 = getelementptr inbounds %struct.Signature_, ptr %201, i32 0, i32 4
  %203 = load i32, ptr %202, align 8
  %204 = call ptr @parse_short_body(ptr noundef %198, i32 noundef %203, i1 noundef zeroext false)
  store ptr %204, ptr %39, align 8
  %205 = load ptr, ptr %39, align 8
  store ptr %205, ptr %3, align 8
  %206 = load ptr, ptr %3, align 8
  %207 = icmp eq ptr %206, null
  br i1 %207, label %214, label %208

208:                                              ; preds = %197
  %209 = load ptr, ptr %3, align 8
  %210 = getelementptr inbounds %struct.Ast_, ptr %209, i32 0, i32 2
  %211 = load i8, ptr %210, align 4
  %212 = zext i8 %211 to i32
  %213 = icmp ne i32 %212, 0
  br label %214

214:                                              ; preds = %208, %197
  %215 = phi i1 [ true, %197 ], [ %213, %208 ]
  br i1 %215, label %218, label %216

216:                                              ; preds = %214
  %217 = load ptr, ptr @poisoned_expr, align 8
  store ptr %217, ptr %27, align 8
  br label %264

218:                                              ; preds = %214
  %219 = load ptr, ptr %39, align 8
  %220 = call i32 @astid(ptr noundef %219)
  %221 = load ptr, ptr %31, align 8
  %222 = getelementptr inbounds %struct.Decl_, ptr %221, i32 0, i32 11
  %223 = getelementptr inbounds %struct.FuncDecl, ptr %222, i32 0, i32 3
  store i32 %220, ptr %223, align 8
  br label %259

224:                                              ; preds = %190
  %225 = load ptr, ptr %28, align 8
  store ptr %225, ptr %25, align 8
  store i32 17, ptr %26, align 4
  %226 = load ptr, ptr %25, align 8
  %227 = getelementptr inbounds %struct.ParseContext_, ptr %226, i32 0, i32 1
  %228 = load i32, ptr %227, align 8
  %229 = load i32, ptr %26, align 4
  %230 = icmp eq i32 %228, %229
  br i1 %230, label %231, label %253

231:                                              ; preds = %224
  %232 = load ptr, ptr %28, align 8
  %233 = call ptr @parse_compound_stmt(ptr noundef %232)
  store ptr %233, ptr %40, align 8
  %234 = load ptr, ptr %40, align 8
  store ptr %234, ptr %4, align 8
  %235 = load ptr, ptr %4, align 8
  %236 = icmp eq ptr %235, null
  br i1 %236, label %243, label %237

237:                                              ; preds = %231
  %238 = load ptr, ptr %4, align 8
  %239 = getelementptr inbounds %struct.Ast_, ptr %238, i32 0, i32 2
  %240 = load i8, ptr %239, align 4
  %241 = zext i8 %240 to i32
  %242 = icmp ne i32 %241, 0
  br label %243

243:                                              ; preds = %237, %231
  %244 = phi i1 [ true, %231 ], [ %242, %237 ]
  br i1 %244, label %247, label %245

245:                                              ; preds = %243
  %246 = load ptr, ptr @poisoned_expr, align 8
  store ptr %246, ptr %27, align 8
  br label %264

247:                                              ; preds = %243
  %248 = load ptr, ptr %40, align 8
  %249 = call i32 @astid(ptr noundef %248)
  %250 = load ptr, ptr %31, align 8
  %251 = getelementptr inbounds %struct.Decl_, ptr %250, i32 0, i32 11
  %252 = getelementptr inbounds %struct.FuncDecl, ptr %251, i32 0, i32 3
  store i32 %249, ptr %252, align 8
  br label %258

253:                                              ; preds = %224
  %254 = load ptr, ptr %28, align 8
  %255 = getelementptr inbounds %struct.ParseContext_, ptr %254, i32 0, i32 2
  %256 = getelementptr inbounds %union.SourceSpan, ptr %255, i32 0, i32 0
  %257 = load i64, ptr %256, align 8
  call void (i64, ptr, ...) @sema_error_at(i64 %257, ptr noundef @.str.39)
  br label %258

258:                                              ; preds = %253, %247
  br label %259

259:                                              ; preds = %258, %218
  %260 = load ptr, ptr %31, align 8
  %261 = load ptr, ptr %30, align 8
  %262 = getelementptr inbounds %struct.Expr_, ptr %261, i32 0, i32 3
  store ptr %260, ptr %262, align 8
  %263 = load ptr, ptr %30, align 8
  store ptr %263, ptr %27, align 8
  br label %264

264:                                              ; preds = %259, %245, %216, %188, %134, %114, %107, %84
  %265 = load ptr, ptr %27, align 8
  ret ptr %265
}