; Function Attrs: nounwind uwtable
define internal ptr @parse_lambda(ptr noundef %0, ptr nocapture readnone %1) #1 {
  %3 = alloca ptr, align 8
  %4 = alloca i32, align 4
  %5 = alloca i32, align 4
  %6 = getelementptr inbounds i8, ptr %0, i64 48
  %7 = load i64, ptr %6, align 8
  %8 = tail call ptr @expr_new(i32 noundef 36, i64 %7) #8
  tail call void @advance(ptr noundef %0) #8
  %9 = tail call ptr @vmem_alloc(ptr noundef nonnull @decl_arena, i64 noundef 136) #8
  %10 = getelementptr inbounds i8, ptr %9, i64 24
  %11 = load i64, ptr %10, align 8
  %12 = and i64 %11, -7296
  %13 = or disjoint i64 %12, 2065
  store i64 %13, ptr %10, align 8
  %14 = getelementptr inbounds i8, ptr %9, i64 128
  store ptr null, ptr %14, align 8
  %15 = getelementptr inbounds i8, ptr %0, i64 40
  %16 = load i32, ptr %15, align 8
  %17 = icmp eq i32 %16, 19
  br i1 %17, label %.critedge93, label %18

18:                                               ; preds = %2
  %19 = tail call ptr @parse_optional_type(ptr noundef nonnull %0) #8
  %.not = icmp eq ptr %19, null
  br i1 %.not, label %.critedge, label %20

20:                                               ; preds = %18
  %21 = load i16, ptr %19, align 8
  %22 = and i16 %21, 504
  %.not87 = icmp eq i16 %22, 0
  br i1 %.not87, label %23, label %.critedge

23:                                               ; preds = %20
  %24 = load ptr, ptr @poisoned_expr, align 8
  br label %101

.critedge:                                        ; preds = %20, %18
  %.pr = load i32, ptr %15, align 8
  %25 = icmp eq i32 %.pr, 19
  br i1 %25, label %.critedge93, label %26

26:                                               ; preds = %.critedge
  %27 = tail call ptr @token_type_to_string(i32 noundef 19) #8
  %28 = load i64, ptr %6, align 8
  tail call void (i64, ptr, ...) @sema_error_at(i64 %28, ptr noundef nonnull @.str.22, ptr noundef %27) #8
  %29 = load ptr, ptr @poisoned_expr, align 8
  br label %101

.critedge93:                                      ; preds = %2, %.critedge
  %.07697 = phi ptr [ %19, %.critedge ], [ null, %2 ]
  tail call void @advance(ptr noundef nonnull %0) #8
  store ptr null, ptr %3, align 8
  store i32 0, ptr %4, align 4
  store i32 -1, ptr %5, align 4
  %30 = call zeroext i1 @parse_parameters(ptr noundef nonnull %0, ptr noundef nonnull %3, ptr noundef null, ptr noundef nonnull %4, ptr noundef nonnull %5, i32 noundef 4) #8
  br i1 %30, label %31, label %101

31:                                               ; preds = %.critedge93
  %32 = load i32, ptr %15, align 8
  %33 = icmp eq i32 %32, 26
  br i1 %33, label %.critedge95, label %34

34:                                               ; preds = %31
  %35 = call ptr @token_type_to_string(i32 noundef 26) #8
  %36 = load i64, ptr %6, align 8
  call void (i64, ptr, ...) @sema_error_at(i64 %36, ptr noundef nonnull @.str.22, ptr noundef %35) #8
  %37 = load ptr, ptr @poisoned_expr, align 8
  br label %101

.critedge95:                                      ; preds = %31
  call void @advance(ptr noundef nonnull %0) #8
  %38 = load i32, ptr %5, align 4
  %39 = icmp slt i32 %38, 0
  %.pre = load ptr, ptr %3, align 8
  br i1 %39, label %40, label %44

40:                                               ; preds = %.critedge95
  %.not88 = icmp eq ptr %.pre, null
  br i1 %.not88, label %44, label %41

41:                                               ; preds = %40
  %42 = getelementptr inbounds i8, ptr %.pre, i64 -8
  %43 = load i32, ptr %42, align 4
  br label %44

44:                                               ; preds = %.critedge95, %41, %40
  %45 = phi i32 [ %43, %41 ], [ 0, %40 ], [ %38, %.critedge95 ]
  %46 = getelementptr inbounds i8, ptr %9, i64 92
  store i32 %45, ptr %46, align 4
  %47 = getelementptr inbounds i8, ptr %9, i64 104
  store ptr %.pre, ptr %47, align 8
  %.not89 = icmp eq ptr %.07697, null
  br i1 %.not89, label %55, label %48

48:                                               ; preds = %44
  %49 = load ptr, ptr @type_info_arena, align 8
  %50 = ptrtoint ptr %.07697 to i64
  %51 = ptrtoint ptr %49 to i64
  %52 = sub i64 %50, %51
  %53 = sdiv exact i64 %52, 40
  %54 = trunc i64 %53 to i32
  br label %55

55:                                               ; preds = %44, %48
  %56 = phi i32 [ %54, %48 ], [ 0, %44 ]
  %57 = getelementptr inbounds i8, ptr %9, i64 96
  store i32 %56, ptr %57, align 8
  %58 = load i32, ptr %4, align 4
  %59 = getelementptr inbounds i8, ptr %9, i64 89
  %60 = trunc i32 %58 to i16
  %61 = load i16, ptr %59, align 1
  %62 = shl i16 %60, 3
  %63 = and i16 %62, 56
  %64 = and i16 %61, -57
  %65 = or disjoint i16 %63, %64
  store i16 %65, ptr %59, align 1
  %66 = getelementptr inbounds i8, ptr %9, i64 64
  %67 = call zeroext i1 @parse_attributes(ptr noundef nonnull %0, ptr noundef nonnull %66, ptr noundef null, ptr noundef null, ptr noundef null) #8
  br i1 %67, label %70, label %68

68:                                               ; preds = %55
  %69 = load ptr, ptr @poisoned_expr, align 8
  br label %101

70:                                               ; preds = %55
  %71 = load i32, ptr %15, align 8
  switch i32 %71, label %97 [
    i32 41, label %72
    i32 17, label %85
  ]

72:                                               ; preds = %70
  %73 = load i32, ptr %57, align 8
  %74 = call ptr @parse_short_body(ptr noundef nonnull %0, i32 noundef %73, i1 noundef zeroext false) #8
  %75 = icmp eq ptr %74, null
  br i1 %75, label %.critedge2, label %76

76:                                               ; preds = %72
  %77 = getelementptr inbounds i8, ptr %74, i64 12
  %78 = load i8, ptr %77, align 4
  %.not91 = icmp eq i8 %78, 0
  br i1 %.not91, label %80, label %.split

.split:                                           ; preds = %76
  %79 = ptrtoint ptr %74 to i64
  br label %.critedge2

80:                                               ; preds = %76
  %81 = load ptr, ptr @poisoned_expr, align 8
  br label %101

.critedge2:                                       ; preds = %72, %.split
  %.sink = phi i64 [ %79, %.split ], [ 0, %72 ]
  %.sink99 = load ptr, ptr @ast_arena, align 8
  %82 = ptrtoint ptr %.sink99 to i64
  %83 = sub i64 %.sink, %82
  %phi.call.in = sdiv exact i64 %83, 48
  %phi.call = trunc i64 %phi.call.in to i32
  %84 = getelementptr inbounds i8, ptr %9, i64 112
  store i32 %phi.call, ptr %84, align 8
  br label %99

85:                                               ; preds = %70
  %86 = call ptr @parse_compound_stmt(ptr noundef nonnull %0) #8
  %87 = icmp eq ptr %86, null
  br i1 %87, label %.critedge4, label %88

88:                                               ; preds = %85
  %89 = getelementptr inbounds i8, ptr %86, i64 12
  %90 = load i8, ptr %89, align 4
  %.not90 = icmp eq i8 %90, 0
  br i1 %.not90, label %92, label %.split78

.split78:                                         ; preds = %88
  %91 = ptrtoint ptr %86 to i64
  br label %.critedge4

92:                                               ; preds = %88
  %93 = load ptr, ptr @poisoned_expr, align 8
  br label %101

.critedge4:                                       ; preds = %85, %.split78
  %.sink100 = phi i64 [ %91, %.split78 ], [ 0, %85 ]
  %.sink102 = load ptr, ptr @ast_arena, align 8
  %94 = ptrtoint ptr %.sink102 to i64
  %95 = sub i64 %.sink100, %94
  %phi.call80.in = sdiv exact i64 %95, 48
  %phi.call80 = trunc i64 %phi.call80.in to i32
  %96 = getelementptr inbounds i8, ptr %9, i64 112
  store i32 %phi.call80, ptr %96, align 8
  br label %99

97:                                               ; preds = %70
  %98 = load i64, ptr %6, align 8
  call void (i64, ptr, ...) @sema_error_at(i64 %98, ptr noundef nonnull @.str.39) #8
  br label %99

99:                                               ; preds = %.critedge4, %97, %.critedge2
  %100 = getelementptr inbounds i8, ptr %8, i64 24
  store ptr %9, ptr %100, align 8
  br label %101

101:                                              ; preds = %.critedge93, %99, %92, %80, %68, %34, %26, %23
  %.075 = phi ptr [ %8, %99 ], [ %81, %80 ], [ %93, %92 ], [ %69, %68 ], [ %37, %34 ], [ %29, %26 ], [ %24, %23 ], [ null, %.critedge93 ]
  ret ptr %.075
}